; Function Attrs: mustprogress uwtable
define hidden noundef ptr @_ZN11user_solver6solver5cloneERN3euf6solverE(ptr nocapture noundef nonnull readonly align 8 dereferenceable(492) %this, ptr noundef nonnull align 8 dereferenceable(9136) %dst_ctx) unnamed_addr #3 align 2 personality ptr @__gxx_personality_v0 {
entry:
  %ref.tmp.i = alloca %class.symbol, align 8
  %ref.tmp3.i = alloca %class.symbol, align 8
  %call = tail call noalias noundef ptr @_ZN6memory8allocateEm(i64 noundef 496)
  call void @llvm.lifetime.start.p0(i64 8, ptr nonnull %ref.tmp.i)
  call void @llvm.lifetime.start.p0(i64 8, ptr nonnull %ref.tmp3.i)
  call void @_ZN6symbolC1EPKc(ptr noundef nonnull align 8 dereferenceable(8) %ref.tmp.i, ptr noundef nonnull @.str.12)
  %m.i.i = getelementptr inbounds i8, ptr %dst_ctx, i64 136
  %0 = load ptr, ptr %m.i.i, align 8
  call void @_ZN6symbolC1EPKc(ptr noundef nonnull align 8 dereferenceable(8) %ref.tmp3.i, ptr noundef nonnull @.str.12)
  %m_family_manager.i.i = getelementptr inbounds i8, ptr %0, i64 560
  %call.i.i = call noundef i32 @_ZN14family_manager12mk_family_idERK6symbol(ptr noundef nonnull align 8 dereferenceable(56) %m_family_manager.i.i, ptr noundef nonnull align 8 dereferenceable(8) %ref.tmp3.i)
  call void @_ZN3euf13th_euf_solverC2ERNS_6solverERK6symboli(ptr noundef nonnull align 8 dereferenceable(108) %call, ptr noundef nonnull align 8 dereferenceable(9136) %dst_ctx, ptr noundef nonnull align 8 dereferenceable(8) %ref.tmp.i, i32 noundef %call.i.i)
  %1 = getelementptr inbounds i8, ptr %call, i64 112
  store ptr getelementptr inbounds ({ [75 x ptr], [10 x ptr], [5 x ptr], [11 x ptr], [7 x ptr] }, ptr @_ZTVN11user_solver6solverE, i64 0, i32 0, i64 2), ptr %call, align 8
  %add.ptr.i = getelementptr inbounds i8, ptr %call, i64 32
  store ptr getelementptr inbounds ({ [75 x ptr], [10 x ptr], [5 x ptr], [11 x ptr], [7 x ptr] }, ptr @_ZTVN11user_solver6solverE, i64 0, i32 1, i64 2), ptr %add.ptr.i, align 8
  %add.ptr7.i = getelementptr inbounds i8, ptr %call, i64 40
  store ptr getelementptr inbounds ({ [75 x ptr], [10 x ptr], [5 x ptr], [11 x ptr], [7 x ptr] }, ptr @_ZTVN11user_solver6solverE, i64 0, i32 2, i64 2), ptr %add.ptr7.i, align 8
  %add.ptr8.i = getelementptr inbounds i8, ptr %call, i64 48
  store ptr getelementptr inbounds ({ [75 x ptr], [10 x ptr], [5 x ptr], [11 x ptr], [7 x ptr] }, ptr @_ZTVN11user_solver6solverE, i64 0, i32 3, i64 2), ptr %add.ptr8.i, align 8
  store ptr getelementptr inbounds ({ [75 x ptr], [10 x ptr], [5 x ptr], [11 x ptr], [7 x ptr] }, ptr @_ZTVN11user_solver6solverE, i64 0, i32 4, i64 2), ptr %1, align 8
  %m_push_eh.i = getelementptr inbounds i8, ptr %call, i64 128
  %m_prop.i = getelementptr inbounds i8, ptr %call, i64 432
  %m_next_split_var.i = getelementptr inbounds i8, ptr %call, i64 484
  call void @llvm.memset.p0.i64(ptr noundef nonnull align 8 dereferenceable(300) %m_push_eh.i, i8 0, i64 300, i1 false)
  call void @llvm.memset.p0.i64(ptr noundef nonnull align 8 dereferenceable(52) %m_prop.i, i8 0, i64 52, i1 false)
  store i32 2147483647, ptr %m_next_split_var.i, align 4
  %m_next_split_phase.i = getelementptr inbounds i8, ptr %call, i64 488
  store i32 0, ptr %m_next_split_phase.i, align 8
  call void @llvm.lifetime.end.p0(i64 8, ptr nonnull %ref.tmp.i)
  call void @llvm.lifetime.end.p0(i64 8, ptr nonnull %ref.tmp3.i)
  %m_var2enode.i = getelementptr inbounds i8, ptr %this, i64 88
  %ctx = getelementptr inbounds i8, ptr %this, i64 80
  br label %for.cond

for.cond:                                         ; preds = %for.body, %entry
  %indvars.iv = phi i64 [ %indvars.iv.next, %for.body ], [ 0, %entry ]
  %2 = load ptr, ptr %m_var2enode.i, align 8
  %cmp.i.i = icmp eq ptr %2, null
  br i1 %cmp.i.i, label %_ZNK3euf13th_euf_solver12get_num_varsEv.exit, label %if.end.i.i

if.end.i.i:                                       ; preds = %for.cond
  %arrayidx.i.i = getelementptr inbounds i8, ptr %2, i64 -4
  %3 = load i32, ptr %arrayidx.i.i, align 4
  br label %_ZNK3euf13th_euf_solver12get_num_varsEv.exit

_ZNK3euf13th_euf_solver12get_num_varsEv.exit:     ; preds = %for.cond, %if.end.i.i
  %retval.0.i.i = phi i32 [ %3, %if.end.i.i ], [ 0, %for.cond ]
  %4 = zext i32 %retval.0.i.i to i64
  %cmp = icmp ult i64 %indvars.iv, %4
  br i1 %cmp, label %for.body, label %for.end

for.body:                                         ; preds = %_ZNK3euf13th_euf_solver12get_num_varsEv.exit
  %5 = load ptr, ptr %ctx, align 8
  %arrayidx.i.i6 = getelementptr inbounds ptr, ptr %2, i64 %indvars.iv
  %6 = load ptr, ptr %arrayidx.i.i6, align 8
  %call4 = call noundef ptr @_ZN3euf6solver4copyERS0_PNS_5enodeE(ptr noundef nonnull align 8 dereferenceable(9136) %5, ptr noundef nonnull align 8 dereferenceable(9136) %dst_ctx, ptr noundef %6)
  %7 = load ptr, ptr %call4, align 8
  call void @_ZN11user_solver6solver8add_exprEP4expr(ptr noundef nonnull align 8 dereferenceable(492) %call, ptr noundef %7)
  %indvars.iv.next = add nuw nsw i64 %indvars.iv, 1
  br label %for.cond, !llvm.loop !29

for.end:                                          ; preds = %_ZNK3euf13th_euf_solver12get_num_varsEv.exit
  ret ptr %call
}